; Function Attrs: nounwind uwtable
define ptr @l___private_Lean_Elab_PreDefinition_MkInhabitant_0__Lean_Elab_mkInhabitant_x3f___boxed(ptr noundef %0, ptr noundef %1, ptr noundef %2, ptr noundef %3, ptr noundef %4, ptr noundef %5, ptr noundef %6) local_unnamed_addr #0 {
  %8 = ptrtoint ptr %1 to i64
  %9 = and i64 %8, 1
  %.not = icmp eq i64 %9, 0
  br i1 %.not, label %10, label %lean_dec.exit

10:                                               ; preds = %7
  %11 = load i32, ptr %1, align 4, !tbaa !4
  %12 = icmp sgt i32 %11, 1
  br i1 %12, label %13, label %15, !prof !11

13:                                               ; preds = %10
  %14 = add nsw i32 %11, -1
  store i32 %14, ptr %1, align 4, !tbaa !4
  br label %lean_dec.exit

15:                                               ; preds = %10
  %.not.i = icmp eq i32 %11, 0
  br i1 %.not.i, label %lean_dec.exit, label %16

16:                                               ; preds = %15
  tail call void @lean_dec_ref_cold(ptr noundef nonnull %1) #4
  br label %lean_dec.exit

lean_dec.exit:                                    ; preds = %16, %15, %13, %7
  %17 = lshr i64 %8, 1
  %18 = trunc i64 %17 to i8
  %19 = tail call ptr @l___private_Lean_Elab_PreDefinition_MkInhabitant_0__Lean_Elab_mkInhabitant_x3f(ptr noundef %0, i8 noundef zeroext %18, ptr noundef %2, ptr noundef %3, ptr noundef %4, ptr noundef %5, ptr noundef %6)
  ret ptr %19
}